target datalayout = "e-m:e-p270:32:32-p271:32:32-p272:64:64-i64:64-i128:128-f80:128-n8:16:32:64-S128"
target triple = "x86_64-pc-linux-gnu"

%struct.RBasic = type { i64, i64 }
%struct.RString = type { %struct.RBasic, i64, %union.anon.1 }
%union.anon.1 = type { %struct.anon.2 }
%struct.anon.2 = type { ptr, %union.anon.3 }
%union.anon.3 = type { i64 }

@rb_eArgError = external global i64, align 8
@.str.27 = private unnamed_addr constant [31 x i8] c"inputs must be of equal length\00", align 1

; Function Attrs: inlinehint nounwind sspstrong willreturn memory(read) uwtable
define internal i64 @RSTRING_LEN(i64 noundef %0) #5 {
  %2 = alloca i64, align 8
  store i64 %0, ptr %2, align 8, !tbaa !6
  %3 = load i64, ptr %2, align 8, !tbaa !6
  %4 = inttoptr i64 %3 to ptr
  %5 = getelementptr inbounds nuw %struct.RString, ptr %4, i32 0, i32 1
  %6 = load i64, ptr %5, align 8, !tbaa !37
  ret i64 %6
}

; Function Attrs: nounwind sspstrong uwtable
define internal i64 @ossl_crypto_fixed_length_secure_compare(i64 noundef %0, i64 noundef %1, i64 noundef %2) #0 {
  %4 = alloca i64, align 8
  %5 = alloca i64, align 8
  %6 = alloca i64, align 8
  %7 = alloca i64, align 8
  %8 = alloca ptr, align 8
  %9 = alloca ptr, align 8
  %10 = alloca i64, align 8
  %11 = alloca i64, align 8
  %12 = alloca i32, align 4
  store i64 %0, ptr %5, align 8, !tbaa !6
  store i64 %1, ptr %6, align 8, !tbaa !6
  store i64 %2, ptr %7, align 8, !tbaa !6
  call void @llvm.lifetime.start.p0(i64 8, ptr %8) #22
  %13 = call ptr @rb_string_value_ptr(ptr noundef %6)
  store ptr %13, ptr %8, align 8, !tbaa !19
  call void @llvm.lifetime.start.p0(i64 8, ptr %9) #22
  %14 = call ptr @rb_string_value_ptr(ptr noundef %7)
  store ptr %14, ptr %9, align 8, !tbaa !19
  call void @llvm.lifetime.start.p0(i64 8, ptr %10) #22
  %15 = load i64, ptr %6, align 8, !tbaa !6
  %16 = call i64 @RSTRING_LEN(i64 noundef %15) #24
  store i64 %16, ptr %10, align 8, !tbaa !6
  call void @llvm.lifetime.start.p0(i64 8, ptr %11) #22
  %17 = load i64, ptr %7, align 8, !tbaa !6
  %18 = call i64 @RSTRING_LEN(i64 noundef %17) #24
  store i64 %18, ptr %11, align 8, !tbaa !6
  %19 = load i64, ptr %10, align 8, !tbaa !6
  %20 = load i64, ptr %11, align 8, !tbaa !6
  %21 = icmp ne i64 %19, %20
  br i1 %21, label %22, label %24

22:                                               ; preds = %3
  %23 = load i64, ptr @rb_eArgError, align 8, !tbaa !6
  call void (i64, ptr, ...) @ossl_raise(i64 noundef %23, ptr noundef @.str.27) #23
  unreachable

24:                                               ; preds = %3
  %25 = load ptr, ptr %8, align 8, !tbaa !19
  %26 = load ptr, ptr %9, align 8, !tbaa !19
  %27 = load i64, ptr %10, align 8, !tbaa !6
  %28 = call i32 @CRYPTO_memcmp(ptr noundef %25, ptr noundef %26, i64 noundef %27)
  switch i32 %28, label %30 [
    i32 0, label %29
  ]

29:                                               ; preds = %24
  store i64 20, ptr %4, align 8
  store i32 1, ptr %12, align 4
  br label %31

30:                                               ; preds = %24
  store i64 0, ptr %4, align 8
  store i32 1, ptr %12, align 4
  br label %31

31:                                               ; preds = %30, %29
  call void @llvm.lifetime.end.p0(i64 8, ptr %11) #22
  call void @llvm.lifetime.end.p0(i64 8, ptr %10) #22
  call void @llvm.lifetime.end.p0(i64 8, ptr %9) #22
  call void @llvm.lifetime.end.p0(i64 8, ptr %8) #22
  %32 = load i64, ptr %4, align 8
  ret i64 %32
}