; Function Attrs: nounwind sspstrong uwtable
define internal range(i64 0, 21) i64 @ossl_crypto_fixed_length_secure_compare(i64 %0, i64 noundef %1, i64 noundef %2) #0 {
  %4 = alloca i64, align 8
  %5 = alloca i64, align 8
  store i64 %1, ptr %4, align 8, !tbaa !13
  store i64 %2, ptr %5, align 8, !tbaa !13
  %6 = call ptr @rb_string_value_ptr(ptr noundef nonnull %4) #15
  %7 = call ptr @rb_string_value_ptr(ptr noundef nonnull %5) #15
  %8 = load i64, ptr %4, align 8, !tbaa !13
  %9 = inttoptr i64 %8 to ptr
  %10 = getelementptr inbounds nuw i8, ptr %9, i64 16
  %11 = load i64, ptr %10, align 8, !tbaa !30
  %12 = load i64, ptr %5, align 8, !tbaa !13
  %13 = inttoptr i64 %12 to ptr
  %14 = getelementptr inbounds nuw i8, ptr %13, i64 16
  %15 = load i64, ptr %14, align 8, !tbaa !30
  %.not = icmp eq i64 %11, %15
  br i1 %.not, label %18, label %16

16:                                               ; preds = %3
  %17 = load i64, ptr @rb_eArgError, align 8, !tbaa !13
  call void (i64, ptr, ...) @ossl_raise(i64 noundef %17, ptr noundef nonnull @.str.27) #16
  unreachable

18:                                               ; preds = %3
  %19 = call i32 @CRYPTO_memcmp(ptr noundef %6, ptr noundef %7, i64 noundef %11) #15
  %cond = icmp eq i32 %19, 0
  %. = select i1 %cond, i64 20, i64 0
  ret i64 %.
}